; Function Attrs: mustprogress uwtable
define internal fastcc noundef i64 @_ZN32pxrInternal_v0_24__pxrReserved__L13_GetArraySizeEPNS_7VtValueE(ptr noundef %0) unnamed_addr #0 {
  %.not = icmp eq ptr %0, null
  br i1 %.not, label %10, label %2

2:                                                ; preds = %1
  %3 = getelementptr inbounds nuw i8, ptr %0, i64 8
  %4 = load ptr, ptr %3, align 8
  %5 = icmp eq ptr %4, null
  br i1 %5, label %10, label %6

6:                                                ; preds = %2
  %7 = tail call noundef zeroext i1 @_ZNK32pxrInternal_v0_24__pxrReserved__7VtValue13IsArrayValuedEv(ptr noundef nonnull align 8 dereferenceable(16) %0)
  br i1 %7, label %8, label %10

8:                                                ; preds = %6
  %9 = tail call noundef i64 @_ZNK32pxrInternal_v0_24__pxrReserved__7VtValue15_GetNumElementsEv(ptr noundef nonnull align 8 dereferenceable(16) %0)
  br label %10

10:                                               ; preds = %1, %2, %6, %8
  %.0 = phi i64 [ %9, %8 ], [ 0, %6 ], [ 0, %2 ], [ 0, %1 ]
  ret i64 %.0
}